; Function Attrs: mustprogress uwtable
define void @_ZN18OpenImageIO_v2_6_011ImageOutput6createERKNSt7__cxx1112basic_stringIcSt11char_traitsIcESaIcEEES8_(ptr noalias nocapture sret(%"class.std::unique_ptr.57") align 8 %agg.result, ptr noundef nonnull align 8 dereferenceable(32) %filename, ptr noundef nonnull align 8 dereferenceable(32) %plugin_searchpath) local_unnamed_addr #5 align 2 {
entry:
  %agg.tmp = alloca %"class.OpenImageIO_v2_6_0::basic_string_view", align 8
  %agg.tmp1 = alloca %"class.OpenImageIO_v2_6_0::basic_string_view", align 8
  %call.i = tail call noundef ptr @_ZNKSt7__cxx1112basic_stringIcSt11char_traitsIcESaIcEE4dataEv(ptr noundef nonnull align 8 dereferenceable(32) %filename) #23
  store ptr %call.i, ptr %agg.tmp, align 8
  %m_len.i = getelementptr inbounds i8, ptr %agg.tmp, i64 8
  %call2.i = tail call noundef i64 @_ZNKSt7__cxx1112basic_stringIcSt11char_traitsIcESaIcEE4sizeEv(ptr noundef nonnull align 8 dereferenceable(32) %filename) #23
  store i64 %call2.i, ptr %m_len.i, align 8
  %call.i1 = tail call noundef ptr @_ZNKSt7__cxx1112basic_stringIcSt11char_traitsIcESaIcEE4dataEv(ptr noundef nonnull align 8 dereferenceable(32) %plugin_searchpath) #23
  store ptr %call.i1, ptr %agg.tmp1, align 8
  %m_len.i2 = getelementptr inbounds i8, ptr %agg.tmp1, i64 8
  %call2.i3 = tail call noundef i64 @_ZNKSt7__cxx1112basic_stringIcSt11char_traitsIcESaIcEE4sizeEv(ptr noundef nonnull align 8 dereferenceable(32) %plugin_searchpath) #23
  store i64 %call2.i3, ptr %m_len.i2, align 8
  call void @_ZN18OpenImageIO_v2_6_011ImageOutput6createENS_17basic_string_viewIcSt11char_traitsIcEEEPNS_10Filesystem7IOProxyES4_(ptr sret(%"class.std::unique_ptr.57") align 8 %agg.result, ptr noundef nonnull %agg.tmp, ptr noundef null, ptr noundef nonnull %agg.tmp1)
  ret void
}